target datalayout = "e-m:e-p270:32:32-p271:32:32-p272:64:64-i64:64-i128:128-f80:128-n8:16:32:64-S128"
target triple = "x86_64-pc-linux-gnu"

%struct.wtap_reader = type { i32, i64, i64, i32, %struct.wtap_reader_buf, %struct.wtap_reader_buf, i8, i64, i64, i32, i32, i8, i64, i8, i32, ptr, %struct.z_stream_s, i8, ptr, ptr, %struct.LZ4F_frameInfo_t, [19 x i8], ptr, ptr }
%struct.wtap_reader_buf = type { ptr, ptr, i32 }
%struct.z_stream_s = type { ptr, i32, i64, ptr, i32, i64, ptr, ptr, ptr, ptr, ptr, i32, i64, i64 }
%struct.LZ4F_frameInfo_t = type { i32, i32, i32, i32, i64, i32, i32 }

; Function Attrs: null_pointer_is_valid sspstrong uwtable
define internal i32 @gz_skip(ptr noundef %0, i64 noundef %1) #0 {
  %3 = alloca i32, align 4
  %4 = alloca ptr, align 8
  %5 = alloca i64, align 8
  %6 = alloca i32, align 4
  %7 = alloca i32, align 4
  store ptr %0, ptr %4, align 8
  store i64 %1, ptr %5, align 8
  call void @llvm.lifetime.start.p0(i64 4, ptr %6) #14
  br label %8

8:                                                ; preds = %84, %2
  %9 = load i64, ptr %5, align 8
  %10 = icmp ne i64 %9, 0
  br i1 %10, label %11, label %85

11:                                               ; preds = %8
  %12 = load ptr, ptr %4, align 8
  %13 = getelementptr inbounds nuw %struct.wtap_reader, ptr %12, i32 0, i32 5
  %14 = getelementptr inbounds nuw %struct.wtap_reader_buf, ptr %13, i32 0, i32 2
  %15 = load i32, ptr %14, align 8
  %16 = icmp ne i32 %15, 0
  br i1 %16, label %17, label %58

17:                                               ; preds = %11
  %18 = load ptr, ptr %4, align 8
  %19 = getelementptr inbounds nuw %struct.wtap_reader, ptr %18, i32 0, i32 5
  %20 = getelementptr inbounds nuw %struct.wtap_reader_buf, ptr %19, i32 0, i32 2
  %21 = load i32, ptr %20, align 8
  %22 = zext i32 %21 to i64
  %23 = load i64, ptr %5, align 8
  %24 = icmp sgt i64 %22, %23
  br i1 %24, label %25, label %28

25:                                               ; preds = %17
  %26 = load i64, ptr %5, align 8
  %27 = trunc i64 %26 to i32
  br label %33

28:                                               ; preds = %17
  %29 = load ptr, ptr %4, align 8
  %30 = getelementptr inbounds nuw %struct.wtap_reader, ptr %29, i32 0, i32 5
  %31 = getelementptr inbounds nuw %struct.wtap_reader_buf, ptr %30, i32 0, i32 2
  %32 = load i32, ptr %31, align 8
  br label %33

33:                                               ; preds = %28, %25
  %34 = phi i32 [ %27, %25 ], [ %32, %28 ]
  store i32 %34, ptr %6, align 4
  %35 = load i32, ptr %6, align 4
  %36 = load ptr, ptr %4, align 8
  %37 = getelementptr inbounds nuw %struct.wtap_reader, ptr %36, i32 0, i32 5
  %38 = getelementptr inbounds nuw %struct.wtap_reader_buf, ptr %37, i32 0, i32 2
  %39 = load i32, ptr %38, align 8
  %40 = sub i32 %39, %35
  store i32 %40, ptr %38, align 8
  %41 = load i32, ptr %6, align 4
  %42 = load ptr, ptr %4, align 8
  %43 = getelementptr inbounds nuw %struct.wtap_reader, ptr %42, i32 0, i32 5
  %44 = getelementptr inbounds nuw %struct.wtap_reader_buf, ptr %43, i32 0, i32 1
  %45 = load ptr, ptr %44, align 8
  %46 = zext i32 %41 to i64
  %47 = getelementptr i8, ptr %45, i64 %46
  store ptr %47, ptr %44, align 8
  %48 = load i32, ptr %6, align 4
  %49 = zext i32 %48 to i64
  %50 = load ptr, ptr %4, align 8
  %51 = getelementptr inbounds nuw %struct.wtap_reader, ptr %50, i32 0, i32 2
  %52 = load i64, ptr %51, align 8
  %53 = add i64 %52, %49
  store i64 %53, ptr %51, align 8
  %54 = load i32, ptr %6, align 4
  %55 = zext i32 %54 to i64
  %56 = load i64, ptr %5, align 8
  %57 = sub i64 %56, %55
  store i64 %57, ptr %5, align 8
  br label %84

58:                                               ; preds = %11
  %59 = load ptr, ptr %4, align 8
  %60 = getelementptr inbounds nuw %struct.wtap_reader, ptr %59, i32 0, i32 14
  %61 = load i32, ptr %60, align 4
  %62 = icmp ne i32 %61, 0
  br i1 %62, label %63, label %64

63:                                               ; preds = %58
  store i32 -1, ptr %3, align 4
  store i32 1, ptr %7, align 4
  br label %86

64:                                               ; preds = %58
  %65 = load ptr, ptr %4, align 8
  %66 = getelementptr inbounds nuw %struct.wtap_reader, ptr %65, i32 0, i32 6
  %67 = load i8, ptr %66, align 8, !range !9, !noundef !10
  %68 = trunc i8 %67 to i1
  br i1 %68, label %69, label %76

69:                                               ; preds = %64
  %70 = load ptr, ptr %4, align 8
  %71 = getelementptr inbounds nuw %struct.wtap_reader, ptr %70, i32 0, i32 4
  %72 = getelementptr inbounds nuw %struct.wtap_reader_buf, ptr %71, i32 0, i32 2
  %73 = load i32, ptr %72, align 8
  %74 = icmp eq i32 %73, 0
  br i1 %74, label %75, label %76

75:                                               ; preds = %69
  br label %85

76:                                               ; preds = %69, %64
  %77 = load ptr, ptr %4, align 8
  %78 = call i32 @fill_out_buffer(ptr noundef %77)
  %79 = icmp eq i32 %78, -1
  br i1 %79, label %80, label %81

80:                                               ; preds = %76
  store i32 -1, ptr %3, align 4
  store i32 1, ptr %7, align 4
  br label %86

81:                                               ; preds = %76
  br label %82

82:                                               ; preds = %81
  br label %83

83:                                               ; preds = %82
  br label %84

84:                                               ; preds = %83, %33
  br label %8, !llvm.loop !17

85:                                               ; preds = %75, %8
  store i32 0, ptr %3, align 4
  store i32 1, ptr %7, align 4
  br label %86

86:                                               ; preds = %85, %80, %63
  call void @llvm.lifetime.end.p0(i64 4, ptr %6) #14
  %87 = load i32, ptr %3, align 4
  ret i32 %87
}

; Function Attrs: null_pointer_is_valid sspstrong uwtable
define i32 @file_peekc(ptr noundef %0) #0 {
  %2 = alloca i32, align 4
  %3 = alloca ptr, align 8
  %4 = alloca i32, align 4
  %5 = alloca i32, align 4
  store ptr %0, ptr %3, align 8
  call void @llvm.lifetime.start.p0(i64 4, ptr %4) #14
  store i32 0, ptr %4, align 4
  %6 = load ptr, ptr %3, align 8
  %7 = getelementptr inbounds nuw %struct.wtap_reader, ptr %6, i32 0, i32 14
  %8 = load i32, ptr %7, align 4
  %9 = icmp ne i32 %8, 0
  br i1 %9, label %10, label %11

10:                                               ; preds = %1
  store i32 -1, ptr %2, align 4
  store i32 1, ptr %5, align 4
  br label %82

11:                                               ; preds = %1
  %12 = load ptr, ptr %3, align 8
  %13 = getelementptr inbounds nuw %struct.wtap_reader, ptr %12, i32 0, i32 5
  %14 = getelementptr inbounds nuw %struct.wtap_reader_buf, ptr %13, i32 0, i32 2
  %15 = load i32, ptr %14, align 8
  %16 = icmp ne i32 %15, 0
  br i1 %16, label %17, label %24

17:                                               ; preds = %11
  %18 = load ptr, ptr %3, align 8
  %19 = getelementptr inbounds nuw %struct.wtap_reader, ptr %18, i32 0, i32 5
  %20 = getelementptr inbounds nuw %struct.wtap_reader_buf, ptr %19, i32 0, i32 1
  %21 = load ptr, ptr %20, align 8
  %22 = load i8, ptr %21, align 1
  %23 = zext i8 %22 to i32
  store i32 %23, ptr %2, align 4
  store i32 1, ptr %5, align 4
  br label %82

24:                                               ; preds = %11
  %25 = load ptr, ptr %3, align 8
  %26 = getelementptr inbounds nuw %struct.wtap_reader, ptr %25, i32 0, i32 13
  %27 = load i8, ptr %26, align 8, !range !9, !noundef !10
  %28 = trunc i8 %27 to i1
  br i1 %28, label %29, label %40

29:                                               ; preds = %24
  %30 = load ptr, ptr %3, align 8
  %31 = getelementptr inbounds nuw %struct.wtap_reader, ptr %30, i32 0, i32 13
  store i8 0, ptr %31, align 8
  %32 = load ptr, ptr %3, align 8
  %33 = load ptr, ptr %3, align 8
  %34 = getelementptr inbounds nuw %struct.wtap_reader, ptr %33, i32 0, i32 12
  %35 = load i64, ptr %34, align 8
  %36 = call i32 @gz_skip(ptr noundef %32, i64 noundef %35)
  %37 = icmp eq i32 %36, -1
  br i1 %37, label %38, label %39

38:                                               ; preds = %29
  store i32 -1, ptr %2, align 4
  store i32 1, ptr %5, align 4
  br label %82

39:                                               ; preds = %29
  br label %40

40:                                               ; preds = %39, %24
  br label %41

41:                                               ; preds = %81, %40
  br label %42

42:                                               ; preds = %41
  %43 = load ptr, ptr %3, align 8
  %44 = getelementptr inbounds nuw %struct.wtap_reader, ptr %43, i32 0, i32 5
  %45 = getelementptr inbounds nuw %struct.wtap_reader_buf, ptr %44, i32 0, i32 2
  %46 = load i32, ptr %45, align 8
  %47 = icmp ne i32 %46, 0
  br i1 %47, label %48, label %55

48:                                               ; preds = %42
  %49 = load ptr, ptr %3, align 8
  %50 = getelementptr inbounds nuw %struct.wtap_reader, ptr %49, i32 0, i32 5
  %51 = getelementptr inbounds nuw %struct.wtap_reader_buf, ptr %50, i32 0, i32 1
  %52 = load ptr, ptr %51, align 8
  %53 = load i8, ptr %52, align 1
  %54 = zext i8 %53 to i32
  store i32 %54, ptr %2, align 4
  store i32 1, ptr %5, align 4
  br label %82

55:                                               ; preds = %42
  %56 = load ptr, ptr %3, align 8
  %57 = getelementptr inbounds nuw %struct.wtap_reader, ptr %56, i32 0, i32 14
  %58 = load i32, ptr %57, align 4
  %59 = icmp ne i32 %58, 0
  br i1 %59, label %60, label %61

60:                                               ; preds = %55
  store i32 -1, ptr %2, align 4
  store i32 1, ptr %5, align 4
  br label %82

61:                                               ; preds = %55
  %62 = load ptr, ptr %3, align 8
  %63 = getelementptr inbounds nuw %struct.wtap_reader, ptr %62, i32 0, i32 6
  %64 = load i8, ptr %63, align 8, !range !9, !noundef !10
  %65 = trunc i8 %64 to i1
  br i1 %65, label %66, label %73

66:                                               ; preds = %61
  %67 = load ptr, ptr %3, align 8
  %68 = getelementptr inbounds nuw %struct.wtap_reader, ptr %67, i32 0, i32 4
  %69 = getelementptr inbounds nuw %struct.wtap_reader_buf, ptr %68, i32 0, i32 2
  %70 = load i32, ptr %69, align 8
  %71 = icmp eq i32 %70, 0
  br i1 %71, label %72, label %73

72:                                               ; preds = %66
  store i32 -1, ptr %2, align 4
  store i32 1, ptr %5, align 4
  br label %82

73:                                               ; preds = %66, %61
  %74 = load ptr, ptr %3, align 8
  %75 = call i32 @fill_out_buffer(ptr noundef %74)
  %76 = icmp eq i32 %75, -1
  br i1 %76, label %77, label %78

77:                                               ; preds = %73
  store i32 -1, ptr %2, align 4
  store i32 1, ptr %5, align 4
  br label %82

78:                                               ; preds = %73
  br label %79

79:                                               ; preds = %78
  br label %80

80:                                               ; preds = %79
  br label %81

81:                                               ; preds = %80
  br label %41

82:                                               ; preds = %77, %72, %60, %48, %38, %17, %10
  call void @llvm.lifetime.end.p0(i64 4, ptr %4) #14
  %83 = load i32, ptr %2, align 4
  ret i32 %83
}