; Function Attrs: null_pointer_is_valid sspstrong uwtable
define range(i32 -1, 256) i32 @file_peekc(ptr noundef %0) local_unnamed_addr #0 {
  %2 = getelementptr inbounds nuw i8, ptr %0, i64 132
  %3 = load i32, ptr %2, align 4
  %.not = icmp eq i32 %3, 0
  br i1 %.not, label %4, label %gz_skip.exit

4:                                                ; preds = %1
  %5 = getelementptr inbounds nuw i8, ptr %0, i64 72
  %6 = load i32, ptr %5, align 8
  %.not13 = icmp eq i32 %6, 0
  br i1 %.not13, label %7, label %gz_skip.exit.sink.split

7:                                                ; preds = %4
  %8 = getelementptr inbounds nuw i8, ptr %0, i64 128
  %9 = load i8, ptr %8, align 8, !range !9, !noundef !10
  %10 = trunc nuw i8 %9 to i1
  br i1 %10, label %11, label %gz_skip.exit.thread

11:                                               ; preds = %7
  store i8 0, ptr %8, align 8
  %12 = getelementptr inbounds nuw i8, ptr %0, i64 120
  %13 = load i64, ptr %12, align 8
  %14 = getelementptr inbounds nuw i8, ptr %0, i64 48
  %.not22.i = icmp eq i64 %13, 0
  br i1 %.not22.i, label %gz_skip.exit.thread, label %.lr.ph.i

.lr.ph.i:                                         ; preds = %11
  %15 = getelementptr inbounds nuw i8, ptr %0, i64 64
  %16 = getelementptr inbounds nuw i8, ptr %0, i64 16
  %17 = getelementptr inbounds nuw i8, ptr %0, i64 80
  br label %18

18:                                               ; preds = %42, %.lr.ph.i
  %.01823.i = phi i64 [ %13, %.lr.ph.i ], [ %.1.i, %42 ]
  %19 = load i32, ptr %5, align 8
  %.not20.i = icmp eq i32 %19, 0
  br i1 %.not20.i, label %31, label %20

20:                                               ; preds = %18
  %21 = zext i32 %19 to i64
  %22 = tail call i64 @llvm.smin.i64(i64 %.01823.i, i64 %21)
  %23 = trunc i64 %22 to i32
  %24 = sub i32 %19, %23
  store i32 %24, ptr %5, align 8
  %25 = load ptr, ptr %15, align 8
  %26 = and i64 %22, 4294967295
  %27 = getelementptr i8, ptr %25, i64 %26
  store ptr %27, ptr %15, align 8
  %28 = load i64, ptr %16, align 8
  %29 = add i64 %28, %26
  store i64 %29, ptr %16, align 8
  %30 = sub i64 %.01823.i, %26
  br label %42

31:                                               ; preds = %18
  %32 = load i32, ptr %2, align 4
  %.not21.i = icmp eq i32 %32, 0
  br i1 %.not21.i, label %33, label %gz_skip.exit

33:                                               ; preds = %31
  %34 = load i8, ptr %17, align 8, !range !9, !noundef !10
  %35 = trunc nuw i8 %34 to i1
  br i1 %35, label %36, label %39

36:                                               ; preds = %33
  %37 = load i32, ptr %14, align 8
  %38 = icmp eq i32 %37, 0
  br i1 %38, label %gz_skip.exit.thread, label %39

39:                                               ; preds = %36, %33
  %40 = tail call fastcc i32 @fill_out_buffer(ptr noundef %0)
  %41 = icmp eq i32 %40, -1
  br i1 %41, label %gz_skip.exit, label %42

42:                                               ; preds = %39, %20
  %.1.i = phi i64 [ %30, %20 ], [ %.01823.i, %39 ]
  %.not.i = icmp eq i64 %.1.i, 0
  br i1 %.not.i, label %gz_skip.exit.thread, label %18, !llvm.loop !17

gz_skip.exit.thread:                              ; preds = %36, %42, %11, %7
  %43 = getelementptr inbounds nuw i8, ptr %0, i64 80
  %44 = getelementptr inbounds nuw i8, ptr %0, i64 48
  br label %45

45:                                               ; preds = %55, %gz_skip.exit.thread
  %46 = load i32, ptr %5, align 8
  %.not14 = icmp eq i32 %46, 0
  br i1 %.not14, label %47, label %gz_skip.exit.sink.split

47:                                               ; preds = %45
  %48 = load i32, ptr %2, align 4
  %.not15 = icmp eq i32 %48, 0
  br i1 %.not15, label %49, label %gz_skip.exit

49:                                               ; preds = %47
  %50 = load i8, ptr %43, align 8, !range !9, !noundef !10
  %51 = trunc nuw i8 %50 to i1
  br i1 %51, label %52, label %55

52:                                               ; preds = %49
  %53 = load i32, ptr %44, align 8
  %54 = icmp eq i32 %53, 0
  br i1 %54, label %gz_skip.exit, label %55

55:                                               ; preds = %52, %49
  %56 = tail call fastcc i32 @fill_out_buffer(ptr noundef %0)
  %57 = icmp eq i32 %56, -1
  br i1 %57, label %gz_skip.exit, label %45

gz_skip.exit.sink.split:                          ; preds = %45, %4
  %58 = getelementptr inbounds nuw i8, ptr %0, i64 64
  %59 = load ptr, ptr %58, align 8
  %60 = load i8, ptr %59, align 1
  %61 = zext i8 %60 to i32
  br label %gz_skip.exit

gz_skip.exit:                                     ; preds = %39, %31, %55, %52, %47, %gz_skip.exit.sink.split, %1
  %.0 = phi i32 [ -1, %1 ], [ %61, %gz_skip.exit.sink.split ], [ -1, %47 ], [ -1, %52 ], [ -1, %55 ], [ -1, %31 ], [ -1, %39 ]
  ret i32 %.0
}